; Function Attrs: mustprogress uwtable
define void @_ZN7rocksdb3log6Reader15InitCompressionERKNS_21CompressionTypeRecordE(ptr nocapture noundef nonnull align 8 dereferenceable(240) %this, ptr nocapture noundef nonnull readonly align 1 dereferenceable(1) %compression_record) local_unnamed_addr #3 align 2 personality ptr @__gxx_personality_v0 {
entry:
  %0 = load i8, ptr %compression_record, align 1
  %compression_type_ = getelementptr inbounds i8, ptr %this, i64 114
  store i8 %0, ptr %compression_type_, align 2
  %compression_type_record_read_ = getelementptr inbounds i8, ptr %this, i64 115
  store i8 1, ptr %compression_type_record_read_, align 1
  %call3 = tail call noundef ptr @_ZN7rocksdb19StreamingUncompress6CreateENS_15CompressionTypeEjm(i8 noundef zeroext %0, i32 noundef 2, i64 noundef 32768)
  %uncompress_ = getelementptr inbounds i8, ptr %this, i64 120
  store ptr %call3, ptr %uncompress_, align 8
  %call4 = tail call noalias noundef nonnull dereferenceable(32768) ptr @_Znam(i64 noundef 32768) #20
  %uncompressed_buffer_ = getelementptr inbounds i8, ptr %this, i64 128
  %1 = load ptr, ptr %uncompressed_buffer_, align 8
  store ptr %call4, ptr %uncompressed_buffer_, align 8
  %tobool.not.i.i.i.i = icmp eq ptr %1, null
  br i1 %tobool.not.i.i.i.i, label %_ZNSt10unique_ptrIA_cSt14default_deleteIS0_EED2Ev.exit, label %_ZNKSt14default_deleteIA_cEclIcEENSt9enable_ifIXsr14is_convertibleIPA_T_PS0_EE5valueEvE4typeEPS4_.exit.i.i.i.i

_ZNKSt14default_deleteIA_cEclIcEENSt9enable_ifIXsr14is_convertibleIPA_T_PS0_EE5valueEvE4typeEPS4_.exit.i.i.i.i: ; preds = %entry
  tail call void @_ZdaPv(ptr noundef nonnull %1) #22
  br label %_ZNSt10unique_ptrIA_cSt14default_deleteIS0_EED2Ev.exit

_ZNSt10unique_ptrIA_cSt14default_deleteIS0_EED2Ev.exit: ; preds = %_ZNKSt14default_deleteIA_cEclIcEENSt9enable_ifIXsr14is_convertibleIPA_T_PS0_EE5valueEvE4typeEPS4_.exit.i.i.i.i, %entry
  ret void
}